target datalayout = "e-m:e-p270:32:32-p271:32:32-p272:64:64-i64:64-i128:128-f80:128-n8:16:32:64-S128"
target triple = "x86_64-pc-linux-gnu"

; Function Attrs: nounwind uwtable
define i32 @pmix_argv_append(ptr noundef nonnull %0, ptr noundef %1, ptr noundef nonnull %2) #0 {
  %4 = alloca i32, align 4
  %5 = alloca ptr, align 8
  %6 = alloca ptr, align 8
  %7 = alloca ptr, align 8
  %8 = alloca i32, align 4
  %9 = alloca i32, align 4
  store ptr %0, ptr %5, align 8, !tbaa !3
  store ptr %1, ptr %6, align 8, !tbaa !8
  store ptr %2, ptr %7, align 8, !tbaa !10
  call void @llvm.lifetime.start.p0(i64 4, ptr %8) #7
  %10 = load ptr, ptr %6, align 8, !tbaa !8
  %11 = load ptr, ptr %7, align 8, !tbaa !10
  %12 = call i32 @PMIx_Argv_append_nosize(ptr noundef %10, ptr noundef %11)
  store i32 %12, ptr %8, align 4, !tbaa !12
  %13 = icmp ne i32 0, %12
  br i1 %13, label %14, label %16

14:                                               ; preds = %3
  %15 = load i32, ptr %8, align 4, !tbaa !12
  store i32 %15, ptr %4, align 4
  store i32 1, ptr %9, align 4
  br label %21

16:                                               ; preds = %3
  %17 = load ptr, ptr %6, align 8, !tbaa !8
  %18 = load ptr, ptr %17, align 8, !tbaa !14
  %19 = call i32 @PMIx_Argv_count(ptr noundef %18)
  %20 = load ptr, ptr %5, align 8, !tbaa !3
  store i32 %19, ptr %20, align 4, !tbaa !12
  store i32 0, ptr %4, align 4
  store i32 1, ptr %9, align 4
  br label %21

21:                                               ; preds = %16, %14
  call void @llvm.lifetime.end.p0(i64 4, ptr %8) #7
  %22 = load i32, ptr %4, align 4
  ret i32 %22
}

; Function Attrs: nounwind uwtable
define i32 @pmix_argv_insert(ptr noundef %0, i32 noundef %1, ptr noundef %2) #0 {
  %4 = alloca i32, align 4
  %5 = alloca ptr, align 8
  %6 = alloca i32, align 4
  %7 = alloca ptr, align 8
  %8 = alloca i32, align 4
  %9 = alloca i32, align 4
  %10 = alloca i32, align 4
  %11 = alloca i32, align 4
  %12 = alloca i32, align 4
  store ptr %0, ptr %5, align 8, !tbaa !8
  store i32 %1, ptr %6, align 4, !tbaa !12
  store ptr %2, ptr %7, align 8, !tbaa !14
  call void @llvm.lifetime.start.p0(i64 4, ptr %8) #7
  call void @llvm.lifetime.start.p0(i64 4, ptr %9) #7
  call void @llvm.lifetime.start.p0(i64 4, ptr %10) #7
  call void @llvm.lifetime.start.p0(i64 4, ptr %11) #7
  %13 = load ptr, ptr %5, align 8, !tbaa !8
  %14 = icmp eq ptr null, %13
  br i1 %14, label %22, label %15

15:                                               ; preds = %3
  %16 = load ptr, ptr %5, align 8, !tbaa !8
  %17 = load ptr, ptr %16, align 8, !tbaa !14
  %18 = icmp eq ptr null, %17
  br i1 %18, label %22, label %19

19:                                               ; preds = %15
  %20 = load i32, ptr %6, align 4, !tbaa !12
  %21 = icmp slt i32 %20, 0
  br i1 %21, label %22, label %23

22:                                               ; preds = %19, %15, %3
  store i32 -27, ptr %4, align 4
  store i32 1, ptr %12, align 4
  br label %130

23:                                               ; preds = %19
  %24 = load ptr, ptr %7, align 8, !tbaa !14
  %25 = icmp eq ptr null, %24
  br i1 %25, label %26, label %27

26:                                               ; preds = %23
  store i32 0, ptr %4, align 4
  store i32 1, ptr %12, align 4
  br label %130

27:                                               ; preds = %23
  br label %28

28:                                               ; preds = %27
  %29 = load ptr, ptr %5, align 8, !tbaa !8
  %30 = load ptr, ptr %29, align 8, !tbaa !14
  %31 = call i32 @PMIx_Argv_count(ptr noundef %30)
  store i32 %31, ptr %10, align 4, !tbaa !12
  %32 = load ptr, ptr %7, align 8, !tbaa !14
  %33 = call i32 @PMIx_Argv_count(ptr noundef %32)
  store i32 %33, ptr %9, align 4, !tbaa !12
  %34 = load i32, ptr %6, align 4, !tbaa !12
  %35 = load i32, ptr %10, align 4, !tbaa !12
  %36 = icmp sgt i32 %34, %35
  br i1 %36, label %37, label %54

37:                                               ; preds = %28
  store i32 0, ptr %8, align 4, !tbaa !12
  br label %38

38:                                               ; preds = %50, %37
  %39 = load i32, ptr %8, align 4, !tbaa !12
  %40 = load i32, ptr %9, align 4, !tbaa !12
  %41 = icmp slt i32 %39, %40
  br i1 %41, label %42, label %53

42:                                               ; preds = %38
  %43 = load ptr, ptr %5, align 8, !tbaa !8
  %44 = load ptr, ptr %7, align 8, !tbaa !14
  %45 = load i32, ptr %8, align 4, !tbaa !12
  %46 = sext i32 %45 to i64
  %47 = getelementptr inbounds ptr, ptr %44, i64 %46
  %48 = load ptr, ptr %47, align 8, !tbaa !10
  %49 = call i32 @pmix_argv_append(ptr noundef %10, ptr noundef %43, ptr noundef %48)
  br label %50

50:                                               ; preds = %42
  %51 = load i32, ptr %8, align 4, !tbaa !12
  %52 = add nsw i32 %51, 1
  store i32 %52, ptr %8, align 4, !tbaa !12
  br label %38, !llvm.loop !31

53:                                               ; preds = %38
  br label %129

54:                                               ; preds = %28
  %55 = load ptr, ptr %5, align 8, !tbaa !8
  %56 = load ptr, ptr %55, align 8, !tbaa !14
  %57 = load i32, ptr %10, align 4, !tbaa !12
  %58 = load i32, ptr %9, align 4, !tbaa !12
  %59 = add nsw i32 %57, %58
  %60 = add nsw i32 %59, 1
  %61 = sext i32 %60 to i64
  %62 = mul i64 8, %61
  %63 = call ptr @realloc(ptr noundef %56, i64 noundef %62) #10
  %64 = load ptr, ptr %5, align 8, !tbaa !8
  store ptr %63, ptr %64, align 8, !tbaa !14
  %65 = load i32, ptr %10, align 4, !tbaa !12
  %66 = load i32, ptr %6, align 4, !tbaa !12
  %67 = sub nsw i32 %65, %66
  store i32 %67, ptr %11, align 4, !tbaa !12
  %68 = load i32, ptr %11, align 4, !tbaa !12
  %69 = sub nsw i32 %68, 1
  store i32 %69, ptr %8, align 4, !tbaa !12
  br label %70

70:                                               ; preds = %91, %54
  %71 = load i32, ptr %8, align 4, !tbaa !12
  %72 = icmp sge i32 %71, 0
  br i1 %72, label %73, label %94

73:                                               ; preds = %70
  %74 = load ptr, ptr %5, align 8, !tbaa !8
  %75 = load ptr, ptr %74, align 8, !tbaa !14
  %76 = load i32, ptr %6, align 4, !tbaa !12
  %77 = load i32, ptr %8, align 4, !tbaa !12
  %78 = add nsw i32 %76, %77
  %79 = sext i32 %78 to i64
  %80 = getelementptr inbounds ptr, ptr %75, i64 %79
  %81 = load ptr, ptr %80, align 8, !tbaa !10
  %82 = load ptr, ptr %5, align 8, !tbaa !8
  %83 = load ptr, ptr %82, align 8, !tbaa !14
  %84 = load i32, ptr %6, align 4, !tbaa !12
  %85 = load i32, ptr %9, align 4, !tbaa !12
  %86 = add nsw i32 %84, %85
  %87 = load i32, ptr %8, align 4, !tbaa !12
  %88 = add nsw i32 %86, %87
  %89 = sext i32 %88 to i64
  %90 = getelementptr inbounds ptr, ptr %83, i64 %89
  store ptr %81, ptr %90, align 8, !tbaa !10
  br label %91

91:                                               ; preds = %73
  %92 = load i32, ptr %8, align 4, !tbaa !12
  %93 = add nsw i32 %92, -1
  store i32 %93, ptr %8, align 4, !tbaa !12
  br label %70, !llvm.loop !32

94:                                               ; preds = %70
  %95 = load ptr, ptr %5, align 8, !tbaa !8
  %96 = load ptr, ptr %95, align 8, !tbaa !14
  %97 = load i32, ptr %6, align 4, !tbaa !12
  %98 = load i32, ptr %11, align 4, !tbaa !12
  %99 = add nsw i32 %97, %98
  %100 = load i32, ptr %9, align 4, !tbaa !12
  %101 = add nsw i32 %99, %100
  %102 = sext i32 %101 to i64
  %103 = getelementptr inbounds ptr, ptr %96, i64 %102
  store ptr null, ptr %103, align 8, !tbaa !10
  %104 = load i32, ptr %6, align 4, !tbaa !12
  store i32 %104, ptr %8, align 4, !tbaa !12
  br label %105

105:                                              ; preds = %125, %94
  %106 = load i32, ptr %8, align 4, !tbaa !12
  %107 = load i32, ptr %6, align 4, !tbaa !12
  %108 = load i32, ptr %9, align 4, !tbaa !12
  %109 = add nsw i32 %107, %108
  %110 = icmp slt i32 %106, %109
  br i1 %110, label %111, label %128

111:                                              ; preds = %105
  %112 = load ptr, ptr %7, align 8, !tbaa !14
  %113 = load i32, ptr %8, align 4, !tbaa !12
  %114 = load i32, ptr %6, align 4, !tbaa !12
  %115 = sub nsw i32 %113, %114
  %116 = sext i32 %115 to i64
  %117 = getelementptr inbounds ptr, ptr %112, i64 %116
  %118 = load ptr, ptr %117, align 8, !tbaa !10
  %119 = call noalias ptr @strdup(ptr noundef %118) #7
  %120 = load ptr, ptr %5, align 8, !tbaa !8
  %121 = load ptr, ptr %120, align 8, !tbaa !14
  %122 = load i32, ptr %8, align 4, !tbaa !12
  %123 = sext i32 %122 to i64
  %124 = getelementptr inbounds ptr, ptr %121, i64 %123
  store ptr %119, ptr %124, align 8, !tbaa !10
  br label %125

125:                                              ; preds = %111
  %126 = load i32, ptr %8, align 4, !tbaa !12
  %127 = add nsw i32 %126, 1
  store i32 %127, ptr %8, align 4, !tbaa !12
  br label %105, !llvm.loop !33

128:                                              ; preds = %105
  br label %129

129:                                              ; preds = %128, %53
  store i32 0, ptr %4, align 4
  store i32 1, ptr %12, align 4
  br label %130

130:                                              ; preds = %129, %26, %22
  call void @llvm.lifetime.end.p0(i64 4, ptr %11) #7
  call void @llvm.lifetime.end.p0(i64 4, ptr %10) #7
  call void @llvm.lifetime.end.p0(i64 4, ptr %9) #7
  call void @llvm.lifetime.end.p0(i64 4, ptr %8) #7
  %131 = load i32, ptr %4, align 4
  ret i32 %131
}