; Function Attrs: nounwind uwtable
define range(i32 -27, 1) i32 @pmix_argv_insert(ptr noundef %0, i32 noundef %1, ptr noundef %2) local_unnamed_addr #0 {
  %4 = icmp eq ptr %0, null
  br i1 %4, label %.loopexit, label %5

5:                                                ; preds = %3
  %6 = load ptr, ptr %0, align 8, !tbaa !3
  %7 = icmp eq ptr %6, null
  %8 = icmp slt i32 %1, 0
  %or.cond = or i1 %8, %7
  br i1 %or.cond, label %.loopexit, label %9

9:                                                ; preds = %5
  %10 = icmp eq ptr %2, null
  br i1 %10, label %.loopexit, label %11

11:                                               ; preds = %9
  %12 = tail call i32 @PMIx_Argv_count(ptr noundef nonnull %6) #10
  %13 = tail call i32 @PMIx_Argv_count(ptr noundef nonnull %2) #10
  %14 = icmp sgt i32 %1, %12
  br i1 %14, label %.preheader, label %22

.preheader:                                       ; preds = %11
  %15 = icmp sgt i32 %13, 0
  br i1 %15, label %.lr.ph55.preheader, label %.loopexit

.lr.ph55.preheader:                               ; preds = %.preheader
  %wide.trip.count = zext nneg i32 %13 to i64
  br label %.lr.ph55

.lr.ph55:                                         ; preds = %.lr.ph55.preheader, %pmix_argv_append.exit
  %indvars.iv61 = phi i64 [ 0, %.lr.ph55.preheader ], [ %indvars.iv.next62, %pmix_argv_append.exit ]
  %16 = getelementptr inbounds nuw ptr, ptr %2, i64 %indvars.iv61
  %17 = load ptr, ptr %16, align 8, !tbaa !10
  %18 = tail call i32 @PMIx_Argv_append_nosize(ptr noundef nonnull %0, ptr noundef nonnull %17) #10
  %.not.i = icmp eq i32 %18, 0
  br i1 %.not.i, label %19, label %pmix_argv_append.exit

19:                                               ; preds = %.lr.ph55
  %20 = load ptr, ptr %0, align 8, !tbaa !3
  %21 = tail call i32 @PMIx_Argv_count(ptr noundef %20) #10
  br label %pmix_argv_append.exit

pmix_argv_append.exit:                            ; preds = %.lr.ph55, %19
  %indvars.iv.next62 = add nuw nsw i64 %indvars.iv61, 1
  %exitcond.not = icmp eq i64 %indvars.iv.next62, %wide.trip.count
  br i1 %exitcond.not, label %.loopexit, label %.lr.ph55, !llvm.loop !21

22:                                               ; preds = %11
  %23 = load ptr, ptr %0, align 8, !tbaa !3
  %24 = add nsw i32 %13, %12
  %25 = add nsw i32 %24, 1
  %26 = sext i32 %25 to i64
  %27 = shl nsw i64 %26, 3
  %28 = tail call ptr @realloc(ptr noundef %23, i64 noundef %27) #13
  store ptr %28, ptr %0, align 8, !tbaa !3
  %29 = xor i32 %1, -1
  %30 = add nsw i32 %12, %29
  %31 = icmp sgt i32 %30, -1
  %32 = add nsw i32 %13, %1
  br i1 %31, label %.lr.ph, label %._crit_edge

.lr.ph:                                           ; preds = %22
  %33 = zext nneg i32 %30 to i64
  %34 = zext nneg i32 %1 to i64
  %35 = sext i32 %32 to i64
  %invariant.gep = getelementptr ptr, ptr %28, i64 %34
  %invariant.gep65 = getelementptr ptr, ptr %28, i64 %35
  br label %36

36:                                               ; preds = %.lr.ph, %36
  %indvars.iv = phi i64 [ %33, %.lr.ph ], [ %indvars.iv.next, %36 ]
  %gep = getelementptr ptr, ptr %invariant.gep, i64 %indvars.iv
  %37 = load ptr, ptr %gep, align 8, !tbaa !10
  %gep66 = getelementptr ptr, ptr %invariant.gep65, i64 %indvars.iv
  store ptr %37, ptr %gep66, align 8, !tbaa !10
  %indvars.iv.next = add nsw i64 %indvars.iv, -1
  %.not = icmp eq i64 %indvars.iv, 0
  br i1 %.not, label %._crit_edge, label %36, !llvm.loop !22

._crit_edge:                                      ; preds = %36, %22
  %38 = sext i32 %24 to i64
  %39 = getelementptr inbounds ptr, ptr %28, i64 %38
  store ptr null, ptr %39, align 8, !tbaa !10
  %40 = icmp sgt i32 %13, 0
  br i1 %40, label %.lr.ph53.preheader, label %.loopexit

.lr.ph53.preheader:                               ; preds = %._crit_edge
  %41 = zext nneg i32 %1 to i64
  %42 = zext nneg i32 %32 to i64
  br label %.lr.ph53

.lr.ph53:                                         ; preds = %.lr.ph53.preheader, %.lr.ph53
  %indvars.iv58 = phi i64 [ %41, %.lr.ph53.preheader ], [ %indvars.iv.next59, %.lr.ph53 ]
  %43 = sub nuw nsw i64 %indvars.iv58, %41
  %44 = getelementptr inbounds nuw ptr, ptr %2, i64 %43
  %45 = load ptr, ptr %44, align 8, !tbaa !10
  %46 = tail call noalias ptr @strdup(ptr noundef %45) #10
  %47 = getelementptr inbounds nuw ptr, ptr %28, i64 %indvars.iv58
  store ptr %46, ptr %47, align 8, !tbaa !10
  %indvars.iv.next59 = add nuw nsw i64 %indvars.iv58, 1
  %48 = icmp samesign ult i64 %indvars.iv.next59, %42
  br i1 %48, label %.lr.ph53, label %.loopexit, !llvm.loop !23

.loopexit:                                        ; preds = %.lr.ph53, %pmix_argv_append.exit, %._crit_edge, %.preheader, %9, %3, %5
  %.0 = phi i32 [ -27, %5 ], [ -27, %3 ], [ 0, %9 ], [ 0, %.preheader ], [ 0, %._crit_edge ], [ 0, %pmix_argv_append.exit ], [ 0, %.lr.ph53 ]
  ret i32 %.0
}